target datalayout = "e-m:e-p270:32:32-p271:32:32-p272:64:64-i64:64-i128:128-f80:128-n8:16:32:64-S128"
target triple = "x86_64-pc-linux-gnu"

%struct.AVComplexDouble = type { double, double }
%struct.AVTXContext = type { i32, i32, ptr, ptr, ptr, ptr, [4 x ptr], i32, [4 x ptr], ptr, i32, i64, i32, float, double, ptr }

; Function Attrs: nounwind uwtable
define internal void @ff_tx_rdft_r2r_double_c(ptr noundef %0, ptr noundef %1, ptr noundef %2, i64 noundef %3) #4 {
  %5 = alloca ptr, align 8
  %6 = alloca ptr, align 8
  %7 = alloca ptr, align 8
  %8 = alloca i64, align 8
  %9 = alloca i32, align 4
  %10 = alloca i32, align 4
  %11 = alloca i32, align 4
  %12 = alloca i32, align 4
  %13 = alloca ptr, align 8
  %14 = alloca ptr, align 8
  %15 = alloca ptr, align 8
  %16 = alloca ptr, align 8
  %17 = alloca ptr, align 8
  %18 = alloca double, align 8
  %19 = alloca i32, align 4
  %20 = alloca [4 x double], align 16
  %21 = alloca %struct.AVComplexDouble, align 8
  %22 = alloca %struct.AVComplexDouble, align 8
  %23 = alloca i32, align 4
  store ptr %0, ptr %5, align 8, !tbaa !17
  store ptr %1, ptr %6, align 8, !tbaa !8
  store ptr %2, ptr %7, align 8, !tbaa !8
  store i64 %3, ptr %8, align 8, !tbaa !30
  call void @llvm.lifetime.start.p0(i64 4, ptr %9) #10
  %24 = load ptr, ptr %5, align 8, !tbaa !17
  %25 = getelementptr inbounds nuw %struct.AVTXContext, ptr %24, i32 0, i32 0
  %26 = load i32, ptr %25, align 8, !tbaa !21
  store i32 %26, ptr %9, align 4, !tbaa !4
  call void @llvm.lifetime.start.p0(i64 4, ptr %10) #10
  %27 = load i32, ptr %9, align 4, !tbaa !4
  %28 = ashr i32 %27, 1
  store i32 %28, ptr %10, align 4, !tbaa !4
  call void @llvm.lifetime.start.p0(i64 4, ptr %11) #10
  %29 = load i32, ptr %9, align 4, !tbaa !4
  %30 = ashr i32 %29, 2
  store i32 %30, ptr %11, align 4, !tbaa !4
  call void @llvm.lifetime.start.p0(i64 4, ptr %12) #10
  %31 = load i32, ptr %9, align 4, !tbaa !4
  %32 = add nsw i32 %31, 4
  %33 = sub nsw i32 %32, 1
  %34 = and i32 %33, -4
  %35 = sdiv i32 %34, 4
  store i32 %35, ptr %12, align 4, !tbaa !4
  call void @llvm.lifetime.start.p0(i64 8, ptr %13) #10
  %36 = load ptr, ptr %5, align 8, !tbaa !17
  %37 = getelementptr inbounds nuw %struct.AVTXContext, ptr %36, i32 0, i32 3
  %38 = load ptr, ptr %37, align 8, !tbaa !31
  store ptr %38, ptr %13, align 8, !tbaa !38
  call void @llvm.lifetime.start.p0(i64 8, ptr %14) #10
  %39 = load ptr, ptr %13, align 8, !tbaa !38
  %40 = getelementptr inbounds double, ptr %39, i64 8
  store ptr %40, ptr %14, align 8, !tbaa !38
  call void @llvm.lifetime.start.p0(i64 8, ptr %15) #10
  %41 = load ptr, ptr %14, align 8, !tbaa !38
  %42 = load i32, ptr %12, align 4, !tbaa !4
  %43 = sext i32 %42 to i64
  %44 = getelementptr inbounds double, ptr %41, i64 %43
  store ptr %44, ptr %15, align 8, !tbaa !38
  call void @llvm.lifetime.start.p0(i64 8, ptr %16) #10
  %45 = load ptr, ptr %6, align 8, !tbaa !8
  store ptr %45, ptr %16, align 8, !tbaa !59
  call void @llvm.lifetime.start.p0(i64 8, ptr %17) #10
  %46 = load ptr, ptr %6, align 8, !tbaa !8
  store ptr %46, ptr %17, align 8, !tbaa !38
  call void @llvm.lifetime.start.p0(i64 8, ptr %18) #10
  %47 = load ptr, ptr %5, align 8, !tbaa !17
  %48 = getelementptr inbounds nuw %struct.AVTXContext, ptr %47, i32 0, i32 6
  %49 = getelementptr inbounds [4 x ptr], ptr %48, i64 0, i64 0
  %50 = load ptr, ptr %49, align 8, !tbaa !8
  %51 = load ptr, ptr %5, align 8, !tbaa !17
  %52 = getelementptr inbounds nuw %struct.AVTXContext, ptr %51, i32 0, i32 5
  %53 = load ptr, ptr %52, align 8, !tbaa !67
  %54 = getelementptr inbounds %struct.AVTXContext, ptr %53, i64 0
  %55 = load ptr, ptr %6, align 8, !tbaa !8
  %56 = load ptr, ptr %7, align 8, !tbaa !8
  call void %50(ptr noundef %54, ptr noundef %55, ptr noundef %56, i64 noundef 16)
  %57 = load ptr, ptr %16, align 8, !tbaa !59
  %58 = getelementptr inbounds %struct.AVComplexDouble, ptr %57, i64 0
  %59 = getelementptr inbounds nuw %struct.AVComplexDouble, ptr %58, i32 0, i32 0
  %60 = load double, ptr %59, align 8, !tbaa !32
  store double %60, ptr %18, align 8, !tbaa !29
  %61 = load double, ptr %18, align 8, !tbaa !29
  %62 = load ptr, ptr %16, align 8, !tbaa !59
  %63 = getelementptr inbounds %struct.AVComplexDouble, ptr %62, i64 0
  %64 = getelementptr inbounds nuw %struct.AVComplexDouble, ptr %63, i32 0, i32 1
  %65 = load double, ptr %64, align 8, !tbaa !34
  %66 = fadd nsz double %61, %65
  %67 = load ptr, ptr %16, align 8, !tbaa !59
  %68 = getelementptr inbounds %struct.AVComplexDouble, ptr %67, i64 0
  %69 = getelementptr inbounds nuw %struct.AVComplexDouble, ptr %68, i32 0, i32 0
  store double %66, ptr %69, align 8, !tbaa !32
  %70 = load double, ptr %18, align 8, !tbaa !29
  %71 = load ptr, ptr %16, align 8, !tbaa !59
  %72 = getelementptr inbounds %struct.AVComplexDouble, ptr %71, i64 0
  %73 = getelementptr inbounds nuw %struct.AVComplexDouble, ptr %72, i32 0, i32 1
  %74 = load double, ptr %73, align 8, !tbaa !34
  %75 = fsub nsz double %70, %74
  store double %75, ptr %18, align 8, !tbaa !29
  %76 = load ptr, ptr %13, align 8, !tbaa !38
  %77 = getelementptr inbounds double, ptr %76, i64 0
  %78 = load double, ptr %77, align 8, !tbaa !29
  %79 = load ptr, ptr %16, align 8, !tbaa !59
  %80 = getelementptr inbounds %struct.AVComplexDouble, ptr %79, i64 0
  %81 = getelementptr inbounds nuw %struct.AVComplexDouble, ptr %80, i32 0, i32 0
  %82 = load double, ptr %81, align 8, !tbaa !32
  %83 = fmul nsz double %78, %82
  %84 = load ptr, ptr %16, align 8, !tbaa !59
  %85 = getelementptr inbounds %struct.AVComplexDouble, ptr %84, i64 0
  %86 = getelementptr inbounds nuw %struct.AVComplexDouble, ptr %85, i32 0, i32 0
  store double %83, ptr %86, align 8, !tbaa !32
  %87 = load ptr, ptr %13, align 8, !tbaa !38
  %88 = getelementptr inbounds double, ptr %87, i64 1
  %89 = load double, ptr %88, align 8, !tbaa !29
  %90 = load double, ptr %18, align 8, !tbaa !29
  %91 = fmul nsz double %89, %90
  store double %91, ptr %18, align 8, !tbaa !29
  %92 = load ptr, ptr %13, align 8, !tbaa !38
  %93 = getelementptr inbounds double, ptr %92, i64 2
  %94 = load double, ptr %93, align 8, !tbaa !29
  %95 = load ptr, ptr %16, align 8, !tbaa !59
  %96 = load i32, ptr %11, align 4, !tbaa !4
  %97 = sext i32 %96 to i64
  %98 = getelementptr inbounds %struct.AVComplexDouble, ptr %95, i64 %97
  %99 = getelementptr inbounds nuw %struct.AVComplexDouble, ptr %98, i32 0, i32 0
  %100 = load double, ptr %99, align 8, !tbaa !32
  %101 = fmul nsz double %94, %100
  %102 = load ptr, ptr %16, align 8, !tbaa !59
  %103 = load i32, ptr %11, align 4, !tbaa !4
  %104 = sext i32 %103 to i64
  %105 = getelementptr inbounds %struct.AVComplexDouble, ptr %102, i64 %104
  %106 = getelementptr inbounds nuw %struct.AVComplexDouble, ptr %105, i32 0, i32 0
  store double %101, ptr %106, align 8, !tbaa !32
  %107 = load ptr, ptr %13, align 8, !tbaa !38
  %108 = getelementptr inbounds double, ptr %107, i64 3
  %109 = load double, ptr %108, align 8, !tbaa !29
  %110 = load ptr, ptr %16, align 8, !tbaa !59
  %111 = load i32, ptr %11, align 4, !tbaa !4
  %112 = sext i32 %111 to i64
  %113 = getelementptr inbounds %struct.AVComplexDouble, ptr %110, i64 %112
  %114 = getelementptr inbounds nuw %struct.AVComplexDouble, ptr %113, i32 0, i32 1
  %115 = load double, ptr %114, align 8, !tbaa !34
  %116 = fmul nsz double %109, %115
  %117 = load ptr, ptr %16, align 8, !tbaa !59
  %118 = load i32, ptr %11, align 4, !tbaa !4
  %119 = sext i32 %118 to i64
  %120 = getelementptr inbounds %struct.AVComplexDouble, ptr %117, i64 %119
  %121 = getelementptr inbounds nuw %struct.AVComplexDouble, ptr %120, i32 0, i32 1
  store double %116, ptr %121, align 8, !tbaa !34
  call void @llvm.lifetime.start.p0(i64 4, ptr %19) #10
  store i32 1, ptr %19, align 4, !tbaa !4
  br label %122

122:                                              ; preds = %206, %4
  %123 = load i32, ptr %19, align 4, !tbaa !4
  %124 = load i32, ptr %11, align 4, !tbaa !4
  %125 = icmp sle i32 %123, %124
  br i1 %125, label %127, label %126

126:                                              ; preds = %122
  call void @llvm.lifetime.end.p0(i64 4, ptr %19) #10
  br label %209

127:                                              ; preds = %122
  call void @llvm.lifetime.start.p0(i64 32, ptr %20) #10
  call void @llvm.lifetime.start.p0(i64 16, ptr %21) #10
  %128 = load ptr, ptr %16, align 8, !tbaa !59
  %129 = load i32, ptr %19, align 4, !tbaa !4
  %130 = sext i32 %129 to i64
  %131 = getelementptr inbounds %struct.AVComplexDouble, ptr %128, i64 %130
  call void @llvm.memcpy.p0.p0.i64(ptr align 8 %21, ptr align 8 %131, i64 16, i1 false), !tbaa.struct !35
  call void @llvm.lifetime.start.p0(i64 16, ptr %22) #10
  %132 = load ptr, ptr %16, align 8, !tbaa !59
  %133 = load i32, ptr %10, align 4, !tbaa !4
  %134 = load i32, ptr %19, align 4, !tbaa !4
  %135 = sub nsw i32 %133, %134
  %136 = sext i32 %135 to i64
  %137 = getelementptr inbounds %struct.AVComplexDouble, ptr %132, i64 %136
  call void @llvm.memcpy.p0.p0.i64(ptr align 8 %22, ptr align 8 %137, i64 16, i1 false), !tbaa.struct !35
  %138 = load ptr, ptr %13, align 8, !tbaa !38
  %139 = getelementptr inbounds double, ptr %138, i64 4
  %140 = load double, ptr %139, align 8, !tbaa !29
  %141 = getelementptr inbounds nuw %struct.AVComplexDouble, ptr %21, i32 0, i32 0
  %142 = load double, ptr %141, align 8, !tbaa !32
  %143 = getelementptr inbounds nuw %struct.AVComplexDouble, ptr %22, i32 0, i32 0
  %144 = load double, ptr %143, align 8, !tbaa !32
  %145 = fadd nsz double %142, %144
  %146 = fmul nsz double %140, %145
  %147 = getelementptr inbounds [4 x double], ptr %20, i64 0, i64 0
  store double %146, ptr %147, align 16, !tbaa !29
  %148 = load ptr, ptr %13, align 8, !tbaa !38
  %149 = getelementptr inbounds double, ptr %148, i64 6
  %150 = load double, ptr %149, align 8, !tbaa !29
  %151 = getelementptr inbounds nuw %struct.AVComplexDouble, ptr %21, i32 0, i32 1
  %152 = load double, ptr %151, align 8, !tbaa !34
  %153 = getelementptr inbounds nuw %struct.AVComplexDouble, ptr %22, i32 0, i32 1
  %154 = load double, ptr %153, align 8, !tbaa !34
  %155 = fadd nsz double %152, %154
  %156 = fmul nsz double %150, %155
  %157 = getelementptr inbounds [4 x double], ptr %20, i64 0, i64 1
  store double %156, ptr %157, align 8, !tbaa !29
  %158 = load ptr, ptr %13, align 8, !tbaa !38
  %159 = getelementptr inbounds double, ptr %158, i64 7
  %160 = load double, ptr %159, align 8, !tbaa !29
  %161 = getelementptr inbounds nuw %struct.AVComplexDouble, ptr %21, i32 0, i32 0
  %162 = load double, ptr %161, align 8, !tbaa !32
  %163 = getelementptr inbounds nuw %struct.AVComplexDouble, ptr %22, i32 0, i32 0
  %164 = load double, ptr %163, align 8, !tbaa !32
  %165 = fsub nsz double %162, %164
  %166 = fmul nsz double %160, %165
  %167 = getelementptr inbounds [4 x double], ptr %20, i64 0, i64 2
  store double %166, ptr %167, align 16, !tbaa !29
  %168 = getelementptr inbounds [4 x double], ptr %20, i64 0, i64 1
  %169 = load double, ptr %168, align 8, !tbaa !29
  %170 = load ptr, ptr %14, align 8, !tbaa !38
  %171 = load i32, ptr %19, align 4, !tbaa !4
  %172 = sext i32 %171 to i64
  %173 = getelementptr inbounds double, ptr %170, i64 %172
  %174 = load double, ptr %173, align 8, !tbaa !29
  %175 = getelementptr inbounds [4 x double], ptr %20, i64 0, i64 2
  %176 = load double, ptr %175, align 16, !tbaa !29
  %177 = load ptr, ptr %15, align 8, !tbaa !38
  %178 = load i32, ptr %19, align 4, !tbaa !4
  %179 = sext i32 %178 to i64
  %180 = getelementptr inbounds double, ptr %177, i64 %179
  %181 = load double, ptr %180, align 8, !tbaa !29
  %182 = fmul nsz double %176, %181
  %183 = fneg nsz double %182
  %184 = call nsz double @llvm.fmuladd.f64(double %169, double %174, double %183)
  %185 = getelementptr inbounds [4 x double], ptr %20, i64 0, i64 3
  store double %184, ptr %185, align 8, !tbaa !29
  %186 = getelementptr inbounds [4 x double], ptr %20, i64 0, i64 0
  %187 = load double, ptr %186, align 16, !tbaa !29
  %188 = getelementptr inbounds [4 x double], ptr %20, i64 0, i64 3
  %189 = load double, ptr %188, align 8, !tbaa !29
  %190 = fadd nsz double %187, %189
  %191 = load ptr, ptr %17, align 8, !tbaa !38
  %192 = load i32, ptr %19, align 4, !tbaa !4
  %193 = sext i32 %192 to i64
  %194 = getelementptr inbounds double, ptr %191, i64 %193
  store double %190, ptr %194, align 8, !tbaa !29
  %195 = getelementptr inbounds [4 x double], ptr %20, i64 0, i64 0
  %196 = load double, ptr %195, align 16, !tbaa !29
  %197 = getelementptr inbounds [4 x double], ptr %20, i64 0, i64 3
  %198 = load double, ptr %197, align 8, !tbaa !29
  %199 = fsub nsz double %196, %198
  %200 = load ptr, ptr %17, align 8, !tbaa !38
  %201 = load i32, ptr %9, align 4, !tbaa !4
  %202 = load i32, ptr %19, align 4, !tbaa !4
  %203 = sub nsw i32 %201, %202
  %204 = sext i32 %203 to i64
  %205 = getelementptr inbounds double, ptr %200, i64 %204
  store double %199, ptr %205, align 8, !tbaa !29
  call void @llvm.lifetime.end.p0(i64 16, ptr %22) #10
  call void @llvm.lifetime.end.p0(i64 16, ptr %21) #10
  call void @llvm.lifetime.end.p0(i64 32, ptr %20) #10
  br label %206

206:                                              ; preds = %127
  %207 = load i32, ptr %19, align 4, !tbaa !4
  %208 = add nsw i32 %207, 1
  store i32 %208, ptr %19, align 4, !tbaa !4
  br label %122, !llvm.loop !150

209:                                              ; preds = %126
  call void @llvm.lifetime.start.p0(i64 4, ptr %23) #10
  store i32 1, ptr %23, align 4, !tbaa !4
  br label %210

210:                                              ; preds = %230, %209
  %211 = load i32, ptr %23, align 4, !tbaa !4
  %212 = load i32, ptr %11, align 4, !tbaa !4
  %213 = add nsw i32 %212, 0
  %214 = icmp slt i32 %211, %213
  br i1 %214, label %216, label %215

215:                                              ; preds = %210
  call void @llvm.lifetime.end.p0(i64 4, ptr %23) #10
  br label %233

216:                                              ; preds = %210
  %217 = load ptr, ptr %17, align 8, !tbaa !38
  %218 = load i32, ptr %9, align 4, !tbaa !4
  %219 = load i32, ptr %23, align 4, !tbaa !4
  %220 = sub nsw i32 %218, %219
  %221 = sext i32 %220 to i64
  %222 = getelementptr inbounds double, ptr %217, i64 %221
  %223 = load double, ptr %222, align 8, !tbaa !29
  %224 = load ptr, ptr %17, align 8, !tbaa !38
  %225 = load i32, ptr %10, align 4, !tbaa !4
  %226 = load i32, ptr %23, align 4, !tbaa !4
  %227 = sub nsw i32 %225, %226
  %228 = sext i32 %227 to i64
  %229 = getelementptr inbounds double, ptr %224, i64 %228
  store double %223, ptr %229, align 8, !tbaa !29
  br label %230

230:                                              ; preds = %216
  %231 = load i32, ptr %23, align 4, !tbaa !4
  %232 = add nsw i32 %231, 1
  store i32 %232, ptr %23, align 4, !tbaa !4
  br label %210, !llvm.loop !151

233:                                              ; preds = %215
  %234 = load double, ptr %18, align 8, !tbaa !29
  %235 = load ptr, ptr %17, align 8, !tbaa !38
  %236 = load i32, ptr %10, align 4, !tbaa !4
  %237 = sext i32 %236 to i64
  %238 = getelementptr inbounds double, ptr %235, i64 %237
  store double %234, ptr %238, align 8, !tbaa !29
  call void @llvm.lifetime.end.p0(i64 8, ptr %18) #10
  call void @llvm.lifetime.end.p0(i64 8, ptr %17) #10
  call void @llvm.lifetime.end.p0(i64 8, ptr %16) #10
  call void @llvm.lifetime.end.p0(i64 8, ptr %15) #10
  call void @llvm.lifetime.end.p0(i64 8, ptr %14) #10
  call void @llvm.lifetime.end.p0(i64 8, ptr %13) #10
  call void @llvm.lifetime.end.p0(i64 4, ptr %12) #10
  call void @llvm.lifetime.end.p0(i64 4, ptr %11) #10
  call void @llvm.lifetime.end.p0(i64 4, ptr %10) #10
  call void @llvm.lifetime.end.p0(i64 4, ptr %9) #10
  ret void
}