; Function Attrs: nounwind uwtable
define internal void @ff_tx_rdft_r2r_double_c(ptr noundef readonly captures(none) %0, ptr noundef %1, ptr noundef %2, i64 %3) #3 {
  %5 = load i32, ptr %0, align 8, !tbaa !16
  %6 = ashr i32 %5, 1
  %7 = ashr i32 %5, 2
  %8 = add nsw i32 %5, 3
  %9 = ashr i32 %8, 2
  %10 = getelementptr inbounds nuw i8, ptr %0, i64 16
  %11 = load ptr, ptr %10, align 8, !tbaa !26
  %12 = getelementptr inbounds nuw i8, ptr %11, i64 64
  %13 = sext i32 %9 to i64
  %14 = getelementptr inbounds double, ptr %12, i64 %13
  %15 = getelementptr inbounds nuw i8, ptr %0, i64 40
  %16 = load ptr, ptr %15, align 8, !tbaa !4
  %17 = getelementptr inbounds nuw i8, ptr %0, i64 32
  %18 = load ptr, ptr %17, align 8, !tbaa !57
  tail call void %16(ptr noundef %18, ptr noundef %1, ptr noundef %2, i64 noundef 16) #16
  %19 = load double, ptr %1, align 8, !tbaa !50
  %20 = getelementptr inbounds nuw i8, ptr %1, i64 8
  %21 = load double, ptr %20, align 8, !tbaa !52
  %22 = fadd nsz double %19, %21
  store double %22, ptr %1, align 8, !tbaa !50
  %23 = load double, ptr %11, align 8, !tbaa !27
  %24 = fmul nsz double %22, %23
  store double %24, ptr %1, align 8, !tbaa !50
  %25 = getelementptr inbounds nuw i8, ptr %11, i64 8
  %26 = load double, ptr %25, align 8, !tbaa !27
  %27 = getelementptr inbounds nuw i8, ptr %11, i64 16
  %28 = load double, ptr %27, align 8, !tbaa !27
  %29 = sext i32 %7 to i64
  %30 = getelementptr inbounds %struct.AVComplexDouble, ptr %1, i64 %29
  %31 = load double, ptr %30, align 8, !tbaa !50
  %32 = fmul nsz double %28, %31
  store double %32, ptr %30, align 8, !tbaa !50
  %33 = getelementptr inbounds nuw i8, ptr %11, i64 24
  %34 = load double, ptr %33, align 8, !tbaa !27
  %35 = getelementptr inbounds nuw i8, ptr %30, i64 8
  %36 = load double, ptr %35, align 8, !tbaa !52
  %37 = fmul nsz double %34, %36
  store double %37, ptr %35, align 8, !tbaa !52
  %.not76 = icmp slt i32 %7, 1
  br i1 %.not76, label %.preheader.._crit_edge_crit_edge, label %.lr.ph

.lr.ph:                                           ; preds = %4
  %38 = getelementptr inbounds nuw i8, ptr %11, i64 32
  %39 = getelementptr inbounds nuw i8, ptr %11, i64 48
  %40 = getelementptr inbounds nuw i8, ptr %11, i64 56
  %41 = sext i32 %6 to i64
  %42 = zext nneg i32 %5 to i64
  %43 = add nuw nsw i32 %7, 1
  %wide.trip.count = zext nneg i32 %43 to i64
  br label %46

.preheader:                                       ; preds = %46
  %.not = icmp eq i32 %7, 1
  br i1 %.not, label %.preheader.._crit_edge_crit_edge, label %.lr.ph79.preheader

.preheader.._crit_edge_crit_edge:                 ; preds = %4, %.preheader
  %.pre = sext i32 %6 to i64
  br label %._crit_edge

.lr.ph79.preheader:                               ; preds = %.preheader
  %44 = zext nneg i32 %5 to i64
  %45 = sext i32 %6 to i64
  %wide.trip.count85 = zext nneg i32 %7 to i64
  br label %.lr.ph79

46:                                               ; preds = %.lr.ph, %46
  %indvars.iv = phi i64 [ 1, %.lr.ph ], [ %indvars.iv.next, %46 ]
  %47 = getelementptr inbounds nuw %struct.AVComplexDouble, ptr %1, i64 %indvars.iv
  %.sroa.05.0.copyload = load double, ptr %47, align 8, !tbaa !27
  %.sroa.57.0..sroa_idx = getelementptr inbounds nuw i8, ptr %47, i64 8
  %.sroa.57.0.copyload = load double, ptr %.sroa.57.0..sroa_idx, align 8, !tbaa !27
  %48 = sub nsw i64 %41, %indvars.iv
  %49 = getelementptr inbounds %struct.AVComplexDouble, ptr %1, i64 %48
  %.sroa.0.0.copyload = load double, ptr %49, align 8, !tbaa !27
  %.sroa.5.0..sroa_idx = getelementptr inbounds nuw i8, ptr %49, i64 8
  %.sroa.5.0.copyload = load double, ptr %.sroa.5.0..sroa_idx, align 8, !tbaa !27
  %50 = load double, ptr %38, align 8, !tbaa !27
  %51 = fadd nsz double %.sroa.05.0.copyload, %.sroa.0.0.copyload
  %52 = fmul nsz double %51, %50
  %53 = load double, ptr %39, align 8, !tbaa !27
  %54 = fadd nsz double %.sroa.57.0.copyload, %.sroa.5.0.copyload
  %55 = fmul nsz double %54, %53
  %56 = load double, ptr %40, align 8, !tbaa !27
  %57 = fsub nsz double %.sroa.05.0.copyload, %.sroa.0.0.copyload
  %58 = fmul nsz double %57, %56
  %59 = getelementptr inbounds nuw double, ptr %12, i64 %indvars.iv
  %60 = load double, ptr %59, align 8, !tbaa !27
  %61 = getelementptr inbounds nuw double, ptr %14, i64 %indvars.iv
  %62 = load double, ptr %61, align 8, !tbaa !27
  %63 = fneg nsz double %62
  %64 = fmul nsz double %58, %63
  %65 = tail call nsz double @llvm.fmuladd.f64(double %55, double %60, double %64)
  %66 = fadd nsz double %52, %65
  %67 = getelementptr inbounds nuw double, ptr %1, i64 %indvars.iv
  store double %66, ptr %67, align 8, !tbaa !27
  %68 = fsub nsz double %52, %65
  %69 = sub nsw i64 %42, %indvars.iv
  %70 = getelementptr inbounds double, ptr %1, i64 %69
  store double %68, ptr %70, align 8, !tbaa !27
  %indvars.iv.next = add nuw nsw i64 %indvars.iv, 1
  %exitcond.not = icmp eq i64 %indvars.iv.next, %wide.trip.count
  br i1 %exitcond.not, label %.preheader, label %46, !llvm.loop !141

._crit_edge:                                      ; preds = %.lr.ph79, %.preheader.._crit_edge_crit_edge
  %.pre-phi = phi i64 [ %.pre, %.preheader.._crit_edge_crit_edge ], [ %45, %.lr.ph79 ]
  %71 = fsub nsz double %19, %21
  %72 = fmul nsz double %71, %26
  %73 = getelementptr inbounds double, ptr %1, i64 %.pre-phi
  store double %72, ptr %73, align 8, !tbaa !27
  ret void

.lr.ph79:                                         ; preds = %.lr.ph79.preheader, %.lr.ph79
  %indvars.iv82 = phi i64 [ 1, %.lr.ph79.preheader ], [ %indvars.iv.next83, %.lr.ph79 ]
  %74 = sub nsw i64 %44, %indvars.iv82
  %75 = getelementptr inbounds double, ptr %1, i64 %74
  %76 = load double, ptr %75, align 8, !tbaa !27
  %77 = sub nsw i64 %45, %indvars.iv82
  %78 = getelementptr inbounds double, ptr %1, i64 %77
  store double %76, ptr %78, align 8, !tbaa !27
  %indvars.iv.next83 = add nuw nsw i64 %indvars.iv82, 1
  %exitcond86.not = icmp eq i64 %indvars.iv.next83, %wide.trip.count85
  br i1 %exitcond86.not, label %._crit_edge, label %.lr.ph79, !llvm.loop !142
}